target datalayout = "e-m:e-p270:32:32-p271:32:32-p272:64:64-i64:64-i128:128-f80:128-n8:16:32:64-S128"
target triple = "x86_64-unknown-linux-gnu"

%"class.ue2::AsciiComponentClass" = type { %"class.ue2::ComponentClass.base", i32, %"class.ue2::CharReach" }
%"class.ue2::ComponentClass.base" = type <{ %"class.ue2::Component", i8, %"struct.ue2::ParseMode", i8, i32, i8 }>
%"class.ue2::Component" = type { ptr, i32, i32 }
%"struct.ue2::ParseMode" = type { i8, i8, i8, i8, i8, i8 }
%"class.ue2::CharReach" = type { %"class.ue2::bitfield" }
%"class.ue2::bitfield" = type { %"struct.std::array" }
%"struct.std::array" = type { [4 x i64] }
%"class.ue2::ComponentClass" = type <{ %"class.ue2::Component", i8, %"struct.ue2::ParseMode", i8, i32, i8, [3 x i8] }>

@_ZTVN3ue214ComponentClassE = external unnamed_addr constant { [22 x ptr] }, align 8
@_ZTVN3ue29ComponentE = external unnamed_addr constant { [17 x ptr] }, align 8

; Function Attrs: mustprogress nounwind uwtable
define linkonce_odr hidden void @_ZN3ue29ComponentC2ERKS0_(ptr noundef nonnull align 8 dereferenceable(16) %this, ptr noundef nonnull align 8 dereferenceable(16) %other) unnamed_addr #5 comdat align 2 {
entry:
  %this.addr = alloca ptr, align 8
  %other.addr = alloca ptr, align 8
  store ptr %this, ptr %this.addr, align 8
  store ptr %other, ptr %other.addr, align 8
  %this1 = load ptr, ptr %this.addr, align 8
  store ptr getelementptr inbounds ({ [17 x ptr] }, ptr @_ZTVN3ue29ComponentE, i32 0, i32 0, i32 2), ptr %this1, align 8
  %pos_begin = getelementptr inbounds %"class.ue2::Component", ptr %this1, i32 0, i32 1
  %0 = load ptr, ptr %other.addr, align 8
  %pos_begin2 = getelementptr inbounds %"class.ue2::Component", ptr %0, i32 0, i32 1
  %1 = load i32, ptr %pos_begin2, align 8
  store i32 %1, ptr %pos_begin, align 8
  %pos_end = getelementptr inbounds %"class.ue2::Component", ptr %this1, i32 0, i32 2
  %2 = load ptr, ptr %other.addr, align 8
  %pos_end3 = getelementptr inbounds %"class.ue2::Component", ptr %2, i32 0, i32 2
  %3 = load i32, ptr %pos_end3, align 4
  store i32 %3, ptr %pos_end, align 4
  ret void
}

; Function Attrs: mustprogress uwtable
define linkonce_odr hidden void @_ZN3ue214ComponentClassC2ERKS0_(ptr noundef nonnull align 8 dereferenceable(29) %this, ptr noundef nonnull align 8 dereferenceable(29) %other) unnamed_addr #0 comdat align 2 {
entry:
  %this.addr = alloca ptr, align 8
  %other.addr = alloca ptr, align 8
  store ptr %this, ptr %this.addr, align 8
  store ptr %other, ptr %other.addr, align 8
  %this1 = load ptr, ptr %this.addr, align 8
  %0 = load ptr, ptr %other.addr, align 8
  call void @_ZN3ue29ComponentC2ERKS0_(ptr noundef nonnull align 8 dereferenceable(16) %this1, ptr noundef nonnull align 8 dereferenceable(16) %0)
  store ptr getelementptr inbounds ({ [22 x ptr] }, ptr @_ZTVN3ue214ComponentClassE, i32 0, i32 0, i32 2), ptr %this1, align 8
  %m_negate = getelementptr inbounds %"class.ue2::ComponentClass", ptr %this1, i32 0, i32 1
  %1 = load ptr, ptr %other.addr, align 8
  %m_negate2 = getelementptr inbounds %"class.ue2::ComponentClass", ptr %1, i32 0, i32 1
  %2 = load i8, ptr %m_negate2, align 8
  %tobool = trunc i8 %2 to i1
  %frombool = zext i1 %tobool to i8
  store i8 %frombool, ptr %m_negate, align 8
  %mode = getelementptr inbounds %"class.ue2::ComponentClass", ptr %this1, i32 0, i32 2
  %3 = load ptr, ptr %other.addr, align 8
  %mode3 = getelementptr inbounds %"class.ue2::ComponentClass", ptr %3, i32 0, i32 2
  call void @llvm.memcpy.p0.p0.i64(ptr align 1 %mode, ptr align 1 %mode3, i64 6, i1 false)
  %in_cand_range = getelementptr inbounds %"class.ue2::ComponentClass", ptr %this1, i32 0, i32 3
  %4 = load ptr, ptr %other.addr, align 8
  %in_cand_range4 = getelementptr inbounds %"class.ue2::ComponentClass", ptr %4, i32 0, i32 3
  %5 = load i8, ptr %in_cand_range4, align 1
  %tobool5 = trunc i8 %5 to i1
  %frombool6 = zext i1 %tobool5 to i8
  store i8 %frombool6, ptr %in_cand_range, align 1
  %range_start = getelementptr inbounds %"class.ue2::ComponentClass", ptr %this1, i32 0, i32 4
  %6 = load ptr, ptr %other.addr, align 8
  %range_start7 = getelementptr inbounds %"class.ue2::ComponentClass", ptr %6, i32 0, i32 4
  %7 = load i32, ptr %range_start7, align 8
  store i32 %7, ptr %range_start, align 8
  %finalized = getelementptr inbounds %"class.ue2::ComponentClass", ptr %this1, i32 0, i32 5
  %8 = load ptr, ptr %other.addr, align 8
  %finalized8 = getelementptr inbounds %"class.ue2::ComponentClass", ptr %8, i32 0, i32 5
  %9 = load i8, ptr %finalized8, align 4
  %tobool9 = trunc i8 %9 to i1
  %frombool10 = zext i1 %tobool9 to i8
  store i8 %frombool10, ptr %finalized, align 4
  ret void
}

; Function Attrs: mustprogress uwtable
define linkonce_odr hidden void @_ZN3ue219AsciiComponentClassC2ERKS0_(ptr noundef nonnull align 8 dereferenceable(72) %this, ptr noundef nonnull align 8 dereferenceable(72) %other) unnamed_addr #0 comdat align 2 {
entry:
  %this.addr = alloca ptr, align 8
  %other.addr = alloca ptr, align 8
  store ptr %this, ptr %this.addr, align 8
  store ptr %other, ptr %other.addr, align 8
  %this1 = load ptr, ptr %this.addr, align 8
  %0 = load ptr, ptr %other.addr, align 8
  call void @_ZN3ue214ComponentClassC2ERKS0_(ptr noundef nonnull align 8 dereferenceable(29) %this1, ptr noundef nonnull align 8 dereferenceable(29) %0)
  store ptr getelementptr inbounds ({ [22 x ptr] }, ptr @_ZTVN3ue219AsciiComponentClassE, i32 0, i32 0, i32 2), ptr %this1, align 8
  %position = getelementptr inbounds %"class.ue2::AsciiComponentClass", ptr %this1, i32 0, i32 1
  %1 = load ptr, ptr %other.addr, align 8
  %position2 = getelementptr inbounds %"class.ue2::AsciiComponentClass", ptr %1, i32 0, i32 1
  %2 = load i32, ptr %position2, align 8
  store i32 %2, ptr %position, align 8
  %cr = getelementptr inbounds %"class.ue2::AsciiComponentClass", ptr %this1, i32 0, i32 2
  %3 = load ptr, ptr %other.addr, align 8
  %cr3 = getelementptr inbounds %"class.ue2::AsciiComponentClass", ptr %3, i32 0, i32 2
  call void @llvm.memcpy.p0.p0.i64(ptr align 8 %cr, ptr align 8 %cr3, i64 32, i1 false)
  ret void
}

; Function Attrs: mustprogress uwtable
define hidden noundef ptr @_ZNK3ue219AsciiComponentClass5cloneEv(ptr noundef nonnull align 8 dereferenceable(72) %this) unnamed_addr #0 align 2 personality ptr @__gxx_personality_v0 {
entry:
  %this.addr = alloca ptr, align 8
  %exn.slot = alloca ptr, align 8
  %ehselector.slot = alloca i32, align 4
  store ptr %this, ptr %this.addr, align 8
  %this1 = load ptr, ptr %this.addr, align 8
  %call = call noalias noundef nonnull ptr @_Znwm(i64 noundef 72) #13
  invoke void @_ZN3ue219AsciiComponentClassC2ERKS0_(ptr noundef nonnull align 8 dereferenceable(72) %call, ptr noundef nonnull align 8 dereferenceable(72) %this1)
          to label %invoke.cont unwind label %lpad

invoke.cont:                                      ; preds = %entry
  ret ptr %call

lpad:                                             ; preds = %entry
  %0 = landingpad { ptr, i32 }
          cleanup
  %1 = extractvalue { ptr, i32 } %0, 0
  store ptr %1, ptr %exn.slot, align 8
  %2 = extractvalue { ptr, i32 } %0, 1
  store i32 %2, ptr %ehselector.slot, align 4
  call void @_ZdlPv(ptr noundef %call) #14
  br label %eh.resume

eh.resume:                                        ; preds = %lpad
  %exn = load ptr, ptr %exn.slot, align 8
  %sel = load i32, ptr %ehselector.slot, align 4
  %lpad.val = insertvalue { ptr, i32 } poison, ptr %exn, 0
  %lpad.val2 = insertvalue { ptr, i32 } %lpad.val, i32 %sel, 1
  resume { ptr, i32 } %lpad.val2
}