; Function Attrs: mustprogress uwtable
define hidden noalias noundef nonnull ptr @_ZNK3ue219AsciiComponentClass5cloneEv(ptr nocapture noundef nonnull readonly align 8 dereferenceable(72) %this) unnamed_addr #0 align 2 personality ptr @__gxx_personality_v0 {
invoke.cont:
  %call = tail call noalias noundef nonnull dereferenceable(72) ptr @_Znwm(i64 noundef 72) #14
  %pos_begin.i.i.i = getelementptr inbounds i8, ptr %call, i64 8
  %pos_begin2.i.i.i = getelementptr inbounds i8, ptr %this, i64 8
  %0 = load <2 x i32>, ptr %pos_begin2.i.i.i, align 8
  store <2 x i32> %0, ptr %pos_begin.i.i.i, align 8
  %m_negate.i.i = getelementptr inbounds i8, ptr %call, i64 16
  %m_negate2.i.i = getelementptr inbounds i8, ptr %this, i64 16
  %1 = load i8, ptr %m_negate2.i.i, align 8
  %2 = and i8 %1, 1
  store i8 %2, ptr %m_negate.i.i, align 8
  %mode.i.i = getelementptr inbounds i8, ptr %call, i64 17
  %mode3.i.i = getelementptr inbounds i8, ptr %this, i64 17
  tail call void @llvm.memcpy.p0.p0.i64(ptr noundef nonnull align 1 dereferenceable(6) %mode.i.i, ptr noundef nonnull align 1 dereferenceable(6) %mode3.i.i, i64 6, i1 false)
  %in_cand_range.i.i = getelementptr inbounds i8, ptr %call, i64 23
  %in_cand_range4.i.i = getelementptr inbounds i8, ptr %this, i64 23
  %3 = load i8, ptr %in_cand_range4.i.i, align 1
  %4 = and i8 %3, 1
  store i8 %4, ptr %in_cand_range.i.i, align 1
  %range_start.i.i = getelementptr inbounds i8, ptr %call, i64 24
  %range_start7.i.i = getelementptr inbounds i8, ptr %this, i64 24
  %5 = load i32, ptr %range_start7.i.i, align 8
  store i32 %5, ptr %range_start.i.i, align 8
  %finalized.i.i = getelementptr inbounds i8, ptr %call, i64 28
  %finalized8.i.i = getelementptr inbounds i8, ptr %this, i64 28
  %6 = load i8, ptr %finalized8.i.i, align 4
  %7 = and i8 %6, 1
  store i8 %7, ptr %finalized.i.i, align 4
  store ptr getelementptr inbounds ({ [22 x ptr] }, ptr @_ZTVN3ue219AsciiComponentClassE, i64 0, i32 0, i64 2), ptr %call, align 8
  %position.i = getelementptr inbounds i8, ptr %call, i64 32
  %position2.i = getelementptr inbounds i8, ptr %this, i64 32
  %8 = load i32, ptr %position2.i, align 8
  store i32 %8, ptr %position.i, align 8
  %cr.i = getelementptr inbounds i8, ptr %call, i64 40
  %cr3.i = getelementptr inbounds i8, ptr %this, i64 40
  tail call void @llvm.memcpy.p0.p0.i64(ptr noundef nonnull align 8 dereferenceable(32) %cr.i, ptr noundef nonnull align 8 dereferenceable(32) %cr3.i, i64 32, i1 false)
  ret ptr %call
}